; ModuleID = '51/935.c'
source_filename = "51/935.c"
target datalayout = "e-m:e-p270:32:32-p271:32:32-p272:64:64-i64:64-f80:128-n8:16:32:64-S128"
target triple = "x86_64-pc-linux-gnu"

@.str = private unnamed_addr constant [3 x i8] c"%d\00", align 1
@.str.1 = private unnamed_addr constant [4 x i8] c"%d\0A\00", align 1
@.str.2 = private unnamed_addr constant [3 x i8] c"%c\00", align 1
@.str.3 = private unnamed_addr constant [2 x i8] c"\0A\00", align 1
@.str.4 = private unnamed_addr constant [3 x i8] c"NO\00", align 1

; Function Attrs: noinline nounwind uwtable
define dso_local i32 @main() #0 {
  %1 = alloca i32, align 4
  %2 = alloca i32, align 4
  %3 = alloca i32, align 4
  %4 = alloca i32, align 4
  %5 = alloca [500 x i32], align 16
  %6 = alloca i32, align 4
  %7 = alloca i32, align 4
  %8 = alloca i32, align 4
  %9 = alloca [500 x i8], align 16
  %10 = alloca [6 x i8], align 1
  %11 = alloca [6 x i8], align 1
  store i32 0, i32* %1, align 4
  %12 = bitcast [500 x i32]* %5 to i8*
  call void @llvm.memset.p0i8.i64(i8* align 16 %12, i8 0, i64 2000, i1 false)
  store i32 0, i32* %6, align 4
  %13 = call i32 (i8*, ...) @__isoc99_scanf(i8* getelementptr inbounds ([3 x i8], [3 x i8]* @.str, i64 0, i64 0), i32* %2)
  %14 = call i32 @getchar()
  %15 = getelementptr inbounds [500 x i8], [500 x i8]* %9, i64 0, i64 0
  %16 = call i32 (i8*, ...) bitcast (i32 (...)* @gets to i32 (i8*, ...)*)(i8* %15)
  %17 = getelementptr inbounds [500 x i8], [500 x i8]* %9, i64 0, i64 0
  %18 = call i64 @strlen(i8* %17) #4
  %19 = trunc i64 %18 to i32
  store i32 %19, i32* %4, align 4
  %20 = load i32, i32* %2, align 4
  %21 = sext i32 %20 to i64
  %22 = getelementptr inbounds [6 x i8], [6 x i8]* %10, i64 0, i64 %21
  store i8 0, i8* %22, align 1
  %23 = load i32, i32* %2, align 4
  %24 = sext i32 %23 to i64
  %25 = getelementptr inbounds [6 x i8], [6 x i8]* %11, i64 0, i64 %24
  store i8 0, i8* %25, align 1
  store i32 0, i32* %3, align 4
  br label %26

26:                                               ; preds = %105, %0
  %27 = load i32, i32* %3, align 4
  %28 = load i32, i32* %4, align 4
  %29 = load i32, i32* %2, align 4
  %30 = sub nsw i32 %28, %29
  %31 = icmp slt i32 %27, %30
  br i1 %31, label %32, label %108

32:                                               ; preds = %26
  %33 = load i32, i32* %3, align 4
  store i32 %33, i32* %8, align 4
  br label %34

34:                                               ; preds = %50, %32
  %35 = load i32, i32* %8, align 4
  %36 = load i32, i32* %2, align 4
  %37 = load i32, i32* %3, align 4
  %38 = add nsw i32 %36, %37
  %39 = icmp slt i32 %35, %38
  br i1 %39, label %40, label %53

40:                                               ; preds = %34
  %41 = load i32, i32* %8, align 4
  %42 = sext i32 %41 to i64
  %43 = getelementptr inbounds [500 x i8], [500 x i8]* %9, i64 0, i64 %42
  %44 = load i8, i8* %43, align 1
  %45 = load i32, i32* %8, align 4
  %46 = load i32, i32* %3, align 4
  %47 = sub nsw i32 %45, %46
  %48 = sext i32 %47 to i64
  %49 = getelementptr inbounds [6 x i8], [6 x i8]* %10, i64 0, i64 %48
  store i8 %44, i8* %49, align 1
  br label %50

50:                                               ; preds = %40
  %51 = load i32, i32* %8, align 4
  %52 = add nsw i32 %51, 1
  store i32 %52, i32* %8, align 4
  br label %34

53:                                               ; preds = %34
  %54 = load i32, i32* %3, align 4
  %55 = sext i32 %54 to i64
  %56 = getelementptr inbounds [500 x i32], [500 x i32]* %5, i64 0, i64 %55
  %57 = load i32, i32* %56, align 4
  %58 = add nsw i32 %57, 1
  store i32 %58, i32* %56, align 4
  %59 = load i32, i32* %3, align 4
  %60 = add nsw i32 %59, 1
  store i32 %60, i32* %7, align 4
  br label %61

61:                                               ; preds = %101, %53
  %62 = load i32, i32* %7, align 4
  %63 = load i32, i32* %4, align 4
  %64 = add nsw i32 %63, 1
  %65 = load i32, i32* %2, align 4
  %66 = sub nsw i32 %64, %65
  %67 = icmp slt i32 %62, %66
  br i1 %67, label %68, label %104

68:                                               ; preds = %61
  %69 = load i32, i32* %7, align 4
  store i32 %69, i32* %8, align 4
  br label %70

70:                                               ; preds = %86, %68
  %71 = load i32, i32* %8, align 4
  %72 = load i32, i32* %2, align 4
  %73 = load i32, i32* %7, align 4
  %74 = add nsw i32 %72, %73
  %75 = icmp slt i32 %71, %74
  br i1 %75, label %76, label %89

76:                                               ; preds = %70
  %77 = load i32, i32* %8, align 4
  %78 = sext i32 %77 to i64
  %79 = getelementptr inbounds [500 x i8], [500 x i8]* %9, i64 0, i64 %78
  %80 = load i8, i8* %79, align 1
  %81 = load i32, i32* %8, align 4
  %82 = load i32, i32* %7, align 4
  %83 = sub nsw i32 %81, %82
  %84 = sext i32 %83 to i64
  %85 = getelementptr inbounds [6 x i8], [6 x i8]* %11, i64 0, i64 %84
  store i8 %80, i8* %85, align 1
  br label %86

86:                                               ; preds = %76
  %87 = load i32, i32* %8, align 4
  %88 = add nsw i32 %87, 1
  store i32 %88, i32* %8, align 4
  br label %70

89:                                               ; preds = %70
  %90 = getelementptr inbounds [6 x i8], [6 x i8]* %11, i64 0, i64 0
  %91 = getelementptr inbounds [6 x i8], [6 x i8]* %10, i64 0, i64 0
  %92 = call i32 @strcmp(i8* %90, i8* %91) #4
  %93 = icmp eq i32 %92, 0
  br i1 %93, label %94, label %100

94:                                               ; preds = %89
  %95 = load i32, i32* %3, align 4
  %96 = sext i32 %95 to i64
  %97 = getelementptr inbounds [500 x i32], [500 x i32]* %5, i64 0, i64 %96
  %98 = load i32, i32* %97, align 4
  %99 = add nsw i32 %98, 1
  store i32 %99, i32* %97, align 4
  br label %100

100:                                              ; preds = %94, %89
  br label %101

101:                                              ; preds = %100
  %102 = load i32, i32* %7, align 4
  %103 = add nsw i32 %102, 1
  store i32 %103, i32* %7, align 4
  br label %61

104:                                              ; preds = %61
  br label %105

105:                                              ; preds = %104
  %106 = load i32, i32* %3, align 4
  %107 = add nsw i32 %106, 1
  store i32 %107, i32* %3, align 4
  br label %26

108:                                              ; preds = %26
  store i32 0, i32* %3, align 4
  br label %109

109:                                              ; preds = %128, %108
  %110 = load i32, i32* %3, align 4
  %111 = load i32, i32* %4, align 4
  %112 = load i32, i32* %2, align 4
  %113 = sub nsw i32 %111, %112
  %114 = icmp slt i32 %110, %113
  br i1 %114, label %115, label %131

115:                                              ; preds = %109
  %116 = load i32, i32* %3, align 4
  %117 = sext i32 %116 to i64
  %118 = getelementptr inbounds [500 x i32], [500 x i32]* %5, i64 0, i64 %117
  %119 = load i32, i32* %118, align 4
  %120 = load i32, i32* %6, align 4
  %121 = icmp sgt i32 %119, %120
  br i1 %121, label %122, label %127

122:                                              ; preds = %115
  %123 = load i32, i32* %3, align 4
  %124 = sext i32 %123 to i64
  %125 = getelementptr inbounds [500 x i32], [500 x i32]* %5, i64 0, i64 %124
  %126 = load i32, i32* %125, align 4
  store i32 %126, i32* %6, align 4
  br label %127

127:                                              ; preds = %122, %115
  br label %128

128:                                              ; preds = %127
  %129 = load i32, i32* %3, align 4
  %130 = add nsw i32 %129, 1
  store i32 %130, i32* %3, align 4
  br label %109

131:                                              ; preds = %109
  %132 = load i32, i32* %6, align 4
  %133 = icmp sgt i32 %132, 1
  br i1 %133, label %134, label %175

134:                                              ; preds = %131
  %135 = load i32, i32* %6, align 4
  %136 = call i32 (i8*, ...) @printf(i8* getelementptr inbounds ([4 x i8], [4 x i8]* @.str.1, i64 0, i64 0), i32 %135)
  store i32 0, i32* %3, align 4
  br label %137

137:                                              ; preds = %171, %134
  %138 = load i32, i32* %3, align 4
  %139 = load i32, i32* %4, align 4
  %140 = load i32, i32* %2, align 4
  %141 = sub nsw i32 %139, %140
  %142 = icmp slt i32 %138, %141
  br i1 %142, label %143, label %174

143:                                              ; preds = %137
  %144 = load i32, i32* %3, align 4
  %145 = sext i32 %144 to i64
  %146 = getelementptr inbounds [500 x i32], [500 x i32]* %5, i64 0, i64 %145
  %147 = load i32, i32* %146, align 4
  %148 = load i32, i32* %6, align 4
  %149 = icmp eq i32 %147, %148
  br i1 %149, label %150, label %170

150:                                              ; preds = %143
  %151 = load i32, i32* %3, align 4
  store i32 %151, i32* %7, align 4
  br label %152

152:                                              ; preds = %165, %150
  %153 = load i32, i32* %7, align 4
  %154 = load i32, i32* %2, align 4
  %155 = load i32, i32* %3, align 4
  %156 = add nsw i32 %154, %155
  %157 = icmp slt i32 %153, %156
  br i1 %157, label %158, label %168

158:                                              ; preds = %152
  %159 = load i32, i32* %7, align 4
  %160 = sext i32 %159 to i64
  %161 = getelementptr inbounds [500 x i8], [500 x i8]* %9, i64 0, i64 %160
  %162 = load i8, i8* %161, align 1
  %163 = sext i8 %162 to i32
  %164 = call i32 (i8*, ...) @printf(i8* getelementptr inbounds ([3 x i8], [3 x i8]* @.str.2, i64 0, i64 0), i32 %163)
  br label %165

165:                                              ; preds = %158
  %166 = load i32, i32* %7, align 4
  %167 = add nsw i32 %166, 1
  store i32 %167, i32* %7, align 4
  br label %152

168:                                              ; preds = %152
  %169 = call i32 (i8*, ...) @printf(i8* getelementptr inbounds ([2 x i8], [2 x i8]* @.str.3, i64 0, i64 0))
  br label %170

170:                                              ; preds = %168, %143
  br label %171

171:                                              ; preds = %170
  %172 = load i32, i32* %3, align 4
  %173 = add nsw i32 %172, 1
  store i32 %173, i32* %3, align 4
  br label %137

174:                                              ; preds = %137
  br label %177

175:                                              ; preds = %131
  %176 = call i32 (i8*, ...) @printf(i8* getelementptr inbounds ([3 x i8], [3 x i8]* @.str.4, i64 0, i64 0))
  br label %177

177:                                              ; preds = %175, %174
  %178 = load i32, i32* %1, align 4
  ret i32 %178
}

; Function Attrs: argmemonly nounwind willreturn
declare void @llvm.memset.p0i8.i64(i8* nocapture writeonly, i8, i64, i1 immarg) #1

declare dso_local i32 @__isoc99_scanf(i8*, ...) #2

declare dso_local i32 @getchar() #2

declare dso_local i32 @gets(...) #2

; Function Attrs: nounwind readonly
declare dso_local i64 @strlen(i8*) #3

; Function Attrs: nounwind readonly
declare dso_local i32 @strcmp(i8*, i8*) #3

declare dso_local i32 @printf(i8*, ...) #2


!llvm.module.flags = !{!0}
!llvm.ident = !{!1}

!0 = !{i32 1, !"wchar_size", i32 4}
!1 = !{!"clang version 10.0.0-4ubuntu1 "}
